target datalayout = "e-m:e-p270:32:32-p271:32:32-p272:64:64-i64:64-i128:128-f80:128-n8:16:32:64-S128"
target triple = "x86_64-pc-linux-gnu"

%"union.pxrInternal_v0_24__pxrReserved__::pxr_half::half::uif" = type { i32 }
%"class.pxrInternal_v0_24__pxrReserved__::Vt_ArrayBase" = type { %"struct.pxrInternal_v0_24__pxrReserved__::Vt_ShapeData", ptr }
%"struct.pxrInternal_v0_24__pxrReserved__::Vt_ShapeData" = type { i64, [3 x i32] }
%"class.pxrInternal_v0_24__pxrReserved__::VtArray.98" = type { %"class.pxrInternal_v0_24__pxrReserved__::Vt_ArrayBase", ptr }
%"class.pxrInternal_v0_24__pxrReserved__::pxr_half::half" = type { i16 }
%"class.pxrInternal_v0_24__pxrReserved__::GfVec4h" = type { [4 x %"class.pxrInternal_v0_24__pxrReserved__::pxr_half::half"] }

@.str.75 = private unnamed_addr constant [6 x i8] c"half4\00", align 1
@_ZN32pxrInternal_v0_24__pxrReserved__8pxr_half4half5_eLutE = external constant [512 x i16], align 16

; Function Attrs: mustprogress nounwind uwtable
define linkonce_odr dso_local void @_ZN32pxrInternal_v0_24__pxrReserved__7GfVec4hC2ENS_8pxr_half4halfES2_S2_S2_(ptr noundef nonnull align 2 dereferenceable(8) %0, i16 %1, i16 %2, i16 %3, i16 %4) unnamed_addr #5 comdat align 2 {
  %6 = alloca %"class.pxrInternal_v0_24__pxrReserved__::pxr_half::half", align 2
  %7 = alloca %"class.pxrInternal_v0_24__pxrReserved__::pxr_half::half", align 2
  %8 = alloca %"class.pxrInternal_v0_24__pxrReserved__::pxr_half::half", align 2
  %9 = alloca %"class.pxrInternal_v0_24__pxrReserved__::pxr_half::half", align 2
  %10 = alloca ptr, align 8
  %11 = getelementptr inbounds nuw %"class.pxrInternal_v0_24__pxrReserved__::pxr_half::half", ptr %6, i32 0, i32 0
  store i16 %1, ptr %11, align 2
  %12 = getelementptr inbounds nuw %"class.pxrInternal_v0_24__pxrReserved__::pxr_half::half", ptr %7, i32 0, i32 0
  store i16 %2, ptr %12, align 2
  %13 = getelementptr inbounds nuw %"class.pxrInternal_v0_24__pxrReserved__::pxr_half::half", ptr %8, i32 0, i32 0
  store i16 %3, ptr %13, align 2
  %14 = getelementptr inbounds nuw %"class.pxrInternal_v0_24__pxrReserved__::pxr_half::half", ptr %9, i32 0, i32 0
  store i16 %4, ptr %14, align 2
  store ptr %0, ptr %10, align 8
  %15 = load ptr, ptr %10, align 8
  %16 = getelementptr inbounds nuw %"class.pxrInternal_v0_24__pxrReserved__::GfVec4h", ptr %15, i32 0, i32 0
  call void @llvm.memcpy.p0.p0.i64(ptr align 2 %16, ptr align 2 %6, i64 2, i1 false)
  %17 = getelementptr inbounds %"class.pxrInternal_v0_24__pxrReserved__::pxr_half::half", ptr %16, i64 1
  call void @llvm.memcpy.p0.p0.i64(ptr align 2 %17, ptr align 2 %7, i64 2, i1 false)
  %18 = getelementptr inbounds %"class.pxrInternal_v0_24__pxrReserved__::pxr_half::half", ptr %16, i64 2
  call void @llvm.memcpy.p0.p0.i64(ptr align 2 %18, ptr align 2 %8, i64 2, i1 false)
  %19 = getelementptr inbounds %"class.pxrInternal_v0_24__pxrReserved__::pxr_half::half", ptr %16, i64 3
  call void @llvm.memcpy.p0.p0.i64(ptr align 2 %19, ptr align 2 %9, i64 2, i1 false)
  ret void
}

; Function Attrs: mustprogress uwtable
define linkonce_odr dso_local void @_ZN32pxrInternal_v0_24__pxrReserved__8pxr_half4halfC2Ef(ptr noundef nonnull align 2 dereferenceable(2) %0, float noundef %1) unnamed_addr #4 comdat align 2 {
  %3 = alloca ptr, align 8
  %4 = alloca float, align 4
  %5 = alloca %"union.pxrInternal_v0_24__pxrReserved__::pxr_half::half::uif", align 4
  %6 = alloca i32, align 4
  %7 = alloca i32, align 4
  store ptr %0, ptr %3, align 8
  store float %1, ptr %4, align 4
  %8 = load ptr, ptr %3, align 8
  %9 = load float, ptr %4, align 4
  store float %9, ptr %5, align 4
  %10 = load float, ptr %4, align 4
  %11 = fcmp oeq float %10, 0.000000e+00
  br i1 %11, label %12, label %17

12:                                               ; preds = %2
  %13 = load i32, ptr %5, align 4
  %14 = lshr i32 %13, 16
  %15 = trunc i32 %14 to i16
  %16 = getelementptr inbounds nuw %"class.pxrInternal_v0_24__pxrReserved__::pxr_half::half", ptr %8, i32 0, i32 0
  store i16 %15, ptr %16, align 2
  br label %47

17:                                               ; preds = %2
  %18 = load i32, ptr %5, align 4
  %19 = lshr i32 %18, 23
  %20 = and i32 %19, 511
  store i32 %20, ptr %6, align 4
  %21 = load i32, ptr %6, align 4
  %22 = sext i32 %21 to i64
  %23 = getelementptr inbounds [512 x i16], ptr @_ZN32pxrInternal_v0_24__pxrReserved__8pxr_half4half5_eLutE, i64 0, i64 %22
  %24 = load i16, ptr %23, align 2
  %25 = zext i16 %24 to i32
  store i32 %25, ptr %6, align 4
  %26 = load i32, ptr %6, align 4
  %27 = icmp ne i32 %26, 0
  br i1 %27, label %28, label %42

28:                                               ; preds = %17
  %29 = load i32, ptr %5, align 4
  %30 = and i32 %29, 8388607
  store i32 %30, ptr %7, align 4
  %31 = load i32, ptr %6, align 4
  %32 = load i32, ptr %7, align 4
  %33 = add nsw i32 %32, 4095
  %34 = load i32, ptr %7, align 4
  %35 = ashr i32 %34, 13
  %36 = and i32 %35, 1
  %37 = add nsw i32 %33, %36
  %38 = ashr i32 %37, 13
  %39 = add nsw i32 %31, %38
  %40 = trunc i32 %39 to i16
  %41 = getelementptr inbounds nuw %"class.pxrInternal_v0_24__pxrReserved__::pxr_half::half", ptr %8, i32 0, i32 0
  store i16 %40, ptr %41, align 2
  br label %46

42:                                               ; preds = %17
  %43 = load i32, ptr %5, align 4
  %44 = call noundef signext i16 @_ZN32pxrInternal_v0_24__pxrReserved__8pxr_half4half7convertEi(i32 noundef %43)
  %45 = getelementptr inbounds nuw %"class.pxrInternal_v0_24__pxrReserved__::pxr_half::half", ptr %8, i32 0, i32 0
  store i16 %44, ptr %45, align 2
  br label %46

46:                                               ; preds = %42, %28
  br label %47

47:                                               ; preds = %46, %12
  ret void
}

; Function Attrs: mustprogress uwtable
define dso_local void @_Z7GetInfoIN32pxrInternal_v0_24__pxrReserved__7GfVec4hEEvPNS0_7VtArrayIT_EEPNSt7__cxx1112basic_stringIcSt11char_traitsIcESaIcEEE(ptr noundef %0, ptr noundef %1) #4 personality ptr @__gxx_personality_v0 {
  %3 = alloca ptr, align 8
  %4 = alloca ptr, align 8
  %5 = alloca %"class.pxrInternal_v0_24__pxrReserved__::VtArray.98", align 8
  %6 = alloca ptr, align 8
  %7 = alloca i32, align 4
  %8 = alloca %"class.pxrInternal_v0_24__pxrReserved__::GfVec4h", align 2
  %9 = alloca %"class.pxrInternal_v0_24__pxrReserved__::pxr_half::half", align 2
  %10 = alloca %"class.pxrInternal_v0_24__pxrReserved__::pxr_half::half", align 2
  %11 = alloca %"class.pxrInternal_v0_24__pxrReserved__::pxr_half::half", align 2
  %12 = alloca %"class.pxrInternal_v0_24__pxrReserved__::pxr_half::half", align 2
  %13 = alloca %"class.pxrInternal_v0_24__pxrReserved__::GfVec4h", align 2
  %14 = alloca %"class.pxrInternal_v0_24__pxrReserved__::pxr_half::half", align 2
  %15 = alloca %"class.pxrInternal_v0_24__pxrReserved__::pxr_half::half", align 2
  %16 = alloca %"class.pxrInternal_v0_24__pxrReserved__::pxr_half::half", align 2
  %17 = alloca %"class.pxrInternal_v0_24__pxrReserved__::pxr_half::half", align 2
  %18 = alloca %"class.pxrInternal_v0_24__pxrReserved__::GfVec4h", align 2
  %19 = alloca %"class.pxrInternal_v0_24__pxrReserved__::pxr_half::half", align 2
  %20 = alloca %"class.pxrInternal_v0_24__pxrReserved__::pxr_half::half", align 2
  %21 = alloca %"class.pxrInternal_v0_24__pxrReserved__::pxr_half::half", align 2
  %22 = alloca %"class.pxrInternal_v0_24__pxrReserved__::pxr_half::half", align 2
  store ptr %0, ptr %3, align 8
  store ptr %1, ptr %4, align 8
  %23 = load ptr, ptr %4, align 8
  %24 = call noundef nonnull align 8 dereferenceable(32) ptr @_ZNSt7__cxx1112basic_stringIcSt11char_traitsIcESaIcEEaSEPKc(ptr noundef nonnull align 8 dereferenceable(32) %23, ptr noundef @.str.75)
  call void @_ZN32pxrInternal_v0_24__pxrReserved__7VtArrayINS_7GfVec4hEEC1Em(ptr noundef nonnull align 8 dereferenceable(40) %5, i64 noundef 3)
  %25 = load ptr, ptr %3, align 8
  %26 = invoke noundef nonnull align 8 dereferenceable(40) ptr @_ZN32pxrInternal_v0_24__pxrReserved__7VtArrayINS_7GfVec4hEEaSEOS2_(ptr noundef nonnull align 8 dereferenceable(40) %25, ptr noundef nonnull align 8 dereferenceable(40) %5)
          to label %27 unwind label %58

27:                                               ; preds = %2
  call void @_ZN32pxrInternal_v0_24__pxrReserved__7VtArrayINS_7GfVec4hEED1Ev(ptr noundef nonnull align 8 dereferenceable(40) %5) #3
  call void @_ZN32pxrInternal_v0_24__pxrReserved__8pxr_half4halfC2Ef(ptr noundef nonnull align 2 dereferenceable(2) %9, float noundef 0x3FF4CCCCC0000000)
  call void @_ZN32pxrInternal_v0_24__pxrReserved__8pxr_half4halfC2Ef(ptr noundef nonnull align 2 dereferenceable(2) %10, float noundef 0x4002666660000000)
  call void @_ZN32pxrInternal_v0_24__pxrReserved__8pxr_half4halfC2Ef(ptr noundef nonnull align 2 dereferenceable(2) %11, float noundef 0x400A666660000000)
  call void @_ZN32pxrInternal_v0_24__pxrReserved__8pxr_half4halfC2Ef(ptr noundef nonnull align 2 dereferenceable(2) %12, float noundef 0x4011333340000000)
  %28 = getelementptr inbounds nuw %"class.pxrInternal_v0_24__pxrReserved__::pxr_half::half", ptr %9, i32 0, i32 0
  %29 = load i16, ptr %28, align 2
  %30 = getelementptr inbounds nuw %"class.pxrInternal_v0_24__pxrReserved__::pxr_half::half", ptr %10, i32 0, i32 0
  %31 = load i16, ptr %30, align 2
  %32 = getelementptr inbounds nuw %"class.pxrInternal_v0_24__pxrReserved__::pxr_half::half", ptr %11, i32 0, i32 0
  %33 = load i16, ptr %32, align 2
  %34 = getelementptr inbounds nuw %"class.pxrInternal_v0_24__pxrReserved__::pxr_half::half", ptr %12, i32 0, i32 0
  %35 = load i16, ptr %34, align 2
  call void @_ZN32pxrInternal_v0_24__pxrReserved__7GfVec4hC2ENS_8pxr_half4halfES2_S2_S2_(ptr noundef nonnull align 2 dereferenceable(8) %8, i16 %29, i16 %31, i16 %33, i16 %35)
  %36 = load ptr, ptr %3, align 8
  %37 = call noundef nonnull align 2 dereferenceable(8) ptr @_ZN32pxrInternal_v0_24__pxrReserved__7VtArrayINS_7GfVec4hEEixEm(ptr noundef nonnull align 8 dereferenceable(40) %36, i64 noundef 0)
  call void @llvm.memcpy.p0.p0.i64(ptr align 2 %37, ptr align 2 %8, i64 8, i1 false)
  call void @_ZN32pxrInternal_v0_24__pxrReserved__8pxr_half4halfC2Ef(ptr noundef nonnull align 2 dereferenceable(2) %14, float noundef 0x4015333340000000)
  call void @_ZN32pxrInternal_v0_24__pxrReserved__8pxr_half4halfC2Ef(ptr noundef nonnull align 2 dereferenceable(2) %15, float noundef 0x4019333340000000)
  call void @_ZN32pxrInternal_v0_24__pxrReserved__8pxr_half4halfC2Ef(ptr noundef nonnull align 2 dereferenceable(2) %16, float noundef 0x401D333340000000)
  call void @_ZN32pxrInternal_v0_24__pxrReserved__8pxr_half4halfC2Ef(ptr noundef nonnull align 2 dereferenceable(2) %17, float noundef 0x40209999A0000000)
  %38 = getelementptr inbounds nuw %"class.pxrInternal_v0_24__pxrReserved__::pxr_half::half", ptr %14, i32 0, i32 0
  %39 = load i16, ptr %38, align 2
  %40 = getelementptr inbounds nuw %"class.pxrInternal_v0_24__pxrReserved__::pxr_half::half", ptr %15, i32 0, i32 0
  %41 = load i16, ptr %40, align 2
  %42 = getelementptr inbounds nuw %"class.pxrInternal_v0_24__pxrReserved__::pxr_half::half", ptr %16, i32 0, i32 0
  %43 = load i16, ptr %42, align 2
  %44 = getelementptr inbounds nuw %"class.pxrInternal_v0_24__pxrReserved__::pxr_half::half", ptr %17, i32 0, i32 0
  %45 = load i16, ptr %44, align 2
  call void @_ZN32pxrInternal_v0_24__pxrReserved__7GfVec4hC2ENS_8pxr_half4halfES2_S2_S2_(ptr noundef nonnull align 2 dereferenceable(8) %13, i16 %39, i16 %41, i16 %43, i16 %45)
  %46 = load ptr, ptr %3, align 8
  %47 = call noundef nonnull align 2 dereferenceable(8) ptr @_ZN32pxrInternal_v0_24__pxrReserved__7VtArrayINS_7GfVec4hEEixEm(ptr noundef nonnull align 8 dereferenceable(40) %46, i64 noundef 1)
  call void @llvm.memcpy.p0.p0.i64(ptr align 2 %47, ptr align 2 %13, i64 8, i1 false)
  call void @_ZN32pxrInternal_v0_24__pxrReserved__8pxr_half4halfC2Ef(ptr noundef nonnull align 2 dereferenceable(2) %19, float noundef 0x40229999A0000000)
  call void @_ZN32pxrInternal_v0_24__pxrReserved__8pxr_half4halfC2Ef(ptr noundef nonnull align 2 dereferenceable(2) %20, float noundef 0x40249999A0000000)
  call void @_ZN32pxrInternal_v0_24__pxrReserved__8pxr_half4halfC2Ef(ptr noundef nonnull align 2 dereferenceable(2) %21, float noundef 0x40269999A0000000)
  call void @_ZN32pxrInternal_v0_24__pxrReserved__8pxr_half4halfC2Ef(ptr noundef nonnull align 2 dereferenceable(2) %22, float noundef 0x40289999A0000000)
  %48 = getelementptr inbounds nuw %"class.pxrInternal_v0_24__pxrReserved__::pxr_half::half", ptr %19, i32 0, i32 0
  %49 = load i16, ptr %48, align 2
  %50 = getelementptr inbounds nuw %"class.pxrInternal_v0_24__pxrReserved__::pxr_half::half", ptr %20, i32 0, i32 0
  %51 = load i16, ptr %50, align 2
  %52 = getelementptr inbounds nuw %"class.pxrInternal_v0_24__pxrReserved__::pxr_half::half", ptr %21, i32 0, i32 0
  %53 = load i16, ptr %52, align 2
  %54 = getelementptr inbounds nuw %"class.pxrInternal_v0_24__pxrReserved__::pxr_half::half", ptr %22, i32 0, i32 0
  %55 = load i16, ptr %54, align 2
  call void @_ZN32pxrInternal_v0_24__pxrReserved__7GfVec4hC2ENS_8pxr_half4halfES2_S2_S2_(ptr noundef nonnull align 2 dereferenceable(8) %18, i16 %49, i16 %51, i16 %53, i16 %55)
  %56 = load ptr, ptr %3, align 8
  %57 = call noundef nonnull align 2 dereferenceable(8) ptr @_ZN32pxrInternal_v0_24__pxrReserved__7VtArrayINS_7GfVec4hEEixEm(ptr noundef nonnull align 8 dereferenceable(40) %56, i64 noundef 2)
  call void @llvm.memcpy.p0.p0.i64(ptr align 2 %57, ptr align 2 %18, i64 8, i1 false)
  ret void

58:                                               ; preds = %2
  %59 = landingpad { ptr, i32 }
          cleanup
  %60 = extractvalue { ptr, i32 } %59, 0
  store ptr %60, ptr %6, align 8
  %61 = extractvalue { ptr, i32 } %59, 1
  store i32 %61, ptr %7, align 4
  call void @_ZN32pxrInternal_v0_24__pxrReserved__7VtArrayINS_7GfVec4hEED1Ev(ptr noundef nonnull align 8 dereferenceable(40) %5) #3
  br label %62

62:                                               ; preds = %58
  %63 = load ptr, ptr %6, align 8
  %64 = load i32, ptr %7, align 4
  %65 = insertvalue { ptr, i32 } poison, ptr %63, 0
  %66 = insertvalue { ptr, i32 } %65, i32 %64, 1
  resume { ptr, i32 } %66
}