; Function Attrs: mustprogress uwtable
define dso_local void @_Z7GetInfoIN32pxrInternal_v0_24__pxrReserved__7GfVec4hEEvPNS0_7VtArrayIT_EEPNSt7__cxx1112basic_stringIcSt11char_traitsIcESaIcEEE(ptr noundef %0, ptr noundef nonnull %1) local_unnamed_addr #3 personality ptr @__gxx_personality_v0 {
  %3 = alloca %"class.pxrInternal_v0_24__pxrReserved__::VtArray.98", align 8
  %4 = tail call noundef nonnull align 8 dereferenceable(32) ptr @_ZNSt7__cxx1112basic_stringIcSt11char_traitsIcESaIcEEaSEPKc(ptr noundef nonnull align 8 dereferenceable(32) %1, ptr noundef nonnull @.str.75)
  call void @_ZN32pxrInternal_v0_24__pxrReserved__7VtArrayINS_7GfVec4hEEC1Em(ptr noundef nonnull align 8 dereferenceable(40) %3, i64 noundef 3)
  %5 = invoke noundef nonnull align 8 dereferenceable(40) ptr @_ZN32pxrInternal_v0_24__pxrReserved__7VtArrayINS_7GfVec4hEEaSEOS2_(ptr noundef nonnull align 8 dereferenceable(40) %0, ptr noundef nonnull align 8 dereferenceable(40) %3)
          to label %6 unwind label %50

6:                                                ; preds = %2
  call void @_ZN32pxrInternal_v0_24__pxrReserved__7VtArrayINS_7GfVec4hEED1Ev(ptr noundef nonnull align 8 dereferenceable(40) %3) #25
  %7 = load i16, ptr getelementptr inbounds (i8, ptr @_ZN32pxrInternal_v0_24__pxrReserved__8pxr_half4half5_eLutE, i64 254), align 2
  %.not.i = icmp eq i16 %7, 0
  br i1 %.not.i, label %10, label %8

8:                                                ; preds = %6
  %9 = add i16 %7, 307
  br label %_ZN32pxrInternal_v0_24__pxrReserved__8pxr_half4halfC2Ef.exit

10:                                               ; preds = %6
  %11 = call noundef signext i16 @_ZN32pxrInternal_v0_24__pxrReserved__8pxr_half4half7convertEi(i32 noundef 1067869798)
  br label %_ZN32pxrInternal_v0_24__pxrReserved__8pxr_half4halfC2Ef.exit

_ZN32pxrInternal_v0_24__pxrReserved__8pxr_half4halfC2Ef.exit: ; preds = %8, %10
  %.sink.i = phi i16 [ %9, %8 ], [ %11, %10 ]
  %12 = load i16, ptr getelementptr inbounds (i8, ptr @_ZN32pxrInternal_v0_24__pxrReserved__8pxr_half4half5_eLutE, i64 256), align 16
  %.not.i6 = icmp eq i16 %12, 0
  br i1 %.not.i6, label %16, label %13

13:                                               ; preds = %_ZN32pxrInternal_v0_24__pxrReserved__8pxr_half4halfC2Ef.exit
  %14 = add i16 %12, 154
  %15 = add i16 %12, 666
  br label %_ZN32pxrInternal_v0_24__pxrReserved__8pxr_half4halfC2Ef.exit11

16:                                               ; preds = %_ZN32pxrInternal_v0_24__pxrReserved__8pxr_half4halfC2Ef.exit
  %17 = call noundef signext i16 @_ZN32pxrInternal_v0_24__pxrReserved__8pxr_half4half7convertEi(i32 noundef 1075000115)
  %18 = call noundef signext i16 @_ZN32pxrInternal_v0_24__pxrReserved__8pxr_half4half7convertEi(i32 noundef 1079194419)
  br label %_ZN32pxrInternal_v0_24__pxrReserved__8pxr_half4halfC2Ef.exit11

_ZN32pxrInternal_v0_24__pxrReserved__8pxr_half4halfC2Ef.exit11: ; preds = %13, %16
  %.sink.i760 = phi i16 [ %14, %13 ], [ %17, %16 ]
  %.sink.i10 = phi i16 [ %15, %13 ], [ %18, %16 ]
  %19 = load i16, ptr getelementptr inbounds (i8, ptr @_ZN32pxrInternal_v0_24__pxrReserved__8pxr_half4half5_eLutE, i64 258), align 2
  %.not.i12 = icmp eq i16 %19, 0
  br i1 %.not.i12, label %22, label %20

20:                                               ; preds = %_ZN32pxrInternal_v0_24__pxrReserved__8pxr_half4halfC2Ef.exit11
  %21 = add i16 %19, 77
  br label %_ZN32pxrInternal_v0_24__pxrReserved__8pxr_half4halfC2Ef.exit14

22:                                               ; preds = %_ZN32pxrInternal_v0_24__pxrReserved__8pxr_half4halfC2Ef.exit11
  %23 = call noundef signext i16 @_ZN32pxrInternal_v0_24__pxrReserved__8pxr_half4half7convertEi(i32 noundef 1082759578)
  br label %_ZN32pxrInternal_v0_24__pxrReserved__8pxr_half4halfC2Ef.exit14

_ZN32pxrInternal_v0_24__pxrReserved__8pxr_half4halfC2Ef.exit14: ; preds = %20, %22
  %.sink.i13 = phi i16 [ %21, %20 ], [ %23, %22 ]
  %24 = call noundef nonnull align 2 dereferenceable(8) ptr @_ZN32pxrInternal_v0_24__pxrReserved__7VtArrayINS_7GfVec4hEEixEm(ptr noundef nonnull align 8 dereferenceable(40) %0, i64 noundef 0)
  %.sroa.458.0.insert.ext = zext i16 %.sink.i13 to i64
  %.sroa.458.0.insert.shift = shl nuw i64 %.sroa.458.0.insert.ext, 48
  %.sroa.357.0.insert.ext = zext i16 %.sink.i10 to i64
  %.sroa.357.0.insert.shift = shl nuw nsw i64 %.sroa.357.0.insert.ext, 32
  %.sroa.357.0.insert.insert = or disjoint i64 %.sroa.458.0.insert.shift, %.sroa.357.0.insert.shift
  %.sroa.256.0.insert.ext = zext i16 %.sink.i760 to i64
  %.sroa.256.0.insert.shift = shl nuw nsw i64 %.sroa.256.0.insert.ext, 16
  %.sroa.256.0.insert.insert = or disjoint i64 %.sroa.357.0.insert.insert, %.sroa.256.0.insert.shift
  %.sroa.055.0.insert.ext = zext i16 %.sink.i to i64
  %.sroa.055.0.insert.insert = or disjoint i64 %.sroa.256.0.insert.insert, %.sroa.055.0.insert.ext
  store i64 %.sroa.055.0.insert.insert, ptr %24, align 2
  br i1 %.not.i12, label %29, label %25

25:                                               ; preds = %_ZN32pxrInternal_v0_24__pxrReserved__8pxr_half4halfC2Ef.exit14
  %26 = add i16 %19, 333
  %27 = add i16 %19, 589
  %28 = add i16 %19, 845
  br label %_ZN32pxrInternal_v0_24__pxrReserved__8pxr_half4halfC2Ef.exit23

29:                                               ; preds = %_ZN32pxrInternal_v0_24__pxrReserved__8pxr_half4halfC2Ef.exit14
  %30 = call noundef signext i16 @_ZN32pxrInternal_v0_24__pxrReserved__8pxr_half4half7convertEi(i32 noundef 1084856730)
  %31 = call noundef signext i16 @_ZN32pxrInternal_v0_24__pxrReserved__8pxr_half4half7convertEi(i32 noundef 1086953882)
  %32 = call noundef signext i16 @_ZN32pxrInternal_v0_24__pxrReserved__8pxr_half4half7convertEi(i32 noundef 1089051034)
  br label %_ZN32pxrInternal_v0_24__pxrReserved__8pxr_half4halfC2Ef.exit23

_ZN32pxrInternal_v0_24__pxrReserved__8pxr_half4halfC2Ef.exit23: ; preds = %25, %29
  %.sink.i1969 = phi i16 [ %27, %25 ], [ %31, %29 ]
  %.sink.i166367 = phi i16 [ %26, %25 ], [ %30, %29 ]
  %.sink.i22 = phi i16 [ %28, %25 ], [ %32, %29 ]
  %33 = load i16, ptr getelementptr inbounds (i8, ptr @_ZN32pxrInternal_v0_24__pxrReserved__8pxr_half4half5_eLutE, i64 260), align 4
  %.not.i24 = icmp eq i16 %33, 0
  br i1 %.not.i24, label %36, label %34

34:                                               ; preds = %_ZN32pxrInternal_v0_24__pxrReserved__8pxr_half4halfC2Ef.exit23
  %35 = add i16 %33, 38
  br label %_ZN32pxrInternal_v0_24__pxrReserved__8pxr_half4halfC2Ef.exit26

36:                                               ; preds = %_ZN32pxrInternal_v0_24__pxrReserved__8pxr_half4halfC2Ef.exit23
  %37 = call noundef signext i16 @_ZN32pxrInternal_v0_24__pxrReserved__8pxr_half4half7convertEi(i32 noundef 1090833613)
  br label %_ZN32pxrInternal_v0_24__pxrReserved__8pxr_half4halfC2Ef.exit26

_ZN32pxrInternal_v0_24__pxrReserved__8pxr_half4halfC2Ef.exit26: ; preds = %34, %36
  %.sink.i25 = phi i16 [ %35, %34 ], [ %37, %36 ]
  %38 = call noundef nonnull align 2 dereferenceable(8) ptr @_ZN32pxrInternal_v0_24__pxrReserved__7VtArrayINS_7GfVec4hEEixEm(ptr noundef nonnull align 8 dereferenceable(40) %0, i64 noundef 1)
  %.sroa.450.0.insert.ext = zext i16 %.sink.i25 to i64
  %.sroa.450.0.insert.shift = shl nuw i64 %.sroa.450.0.insert.ext, 48
  %.sroa.349.0.insert.ext = zext i16 %.sink.i22 to i64
  %.sroa.349.0.insert.shift = shl nuw nsw i64 %.sroa.349.0.insert.ext, 32
  %.sroa.349.0.insert.insert = or disjoint i64 %.sroa.450.0.insert.shift, %.sroa.349.0.insert.shift
  %.sroa.248.0.insert.ext = zext i16 %.sink.i1969 to i64
  %.sroa.248.0.insert.shift = shl nuw nsw i64 %.sroa.248.0.insert.ext, 16
  %.sroa.248.0.insert.insert = or disjoint i64 %.sroa.349.0.insert.insert, %.sroa.248.0.insert.shift
  %.sroa.047.0.insert.ext = zext i16 %.sink.i166367 to i64
  %.sroa.047.0.insert.insert = or disjoint i64 %.sroa.248.0.insert.insert, %.sroa.047.0.insert.ext
  store i64 %.sroa.047.0.insert.insert, ptr %38, align 2
  br i1 %.not.i24, label %44, label %39

39:                                               ; preds = %_ZN32pxrInternal_v0_24__pxrReserved__8pxr_half4halfC2Ef.exit26
  %40 = add i16 %33, 166
  %41 = add i16 %33, 294
  %42 = add i16 %33, 422
  %43 = add i16 %33, 550
  br label %_ZN32pxrInternal_v0_24__pxrReserved__8pxr_half4halfC2Ef.exit38

44:                                               ; preds = %_ZN32pxrInternal_v0_24__pxrReserved__8pxr_half4halfC2Ef.exit26
  %45 = call noundef signext i16 @_ZN32pxrInternal_v0_24__pxrReserved__8pxr_half4half7convertEi(i32 noundef 1091882189)
  %46 = call noundef signext i16 @_ZN32pxrInternal_v0_24__pxrReserved__8pxr_half4half7convertEi(i32 noundef 1092930765)
  %47 = call noundef signext i16 @_ZN32pxrInternal_v0_24__pxrReserved__8pxr_half4half7convertEi(i32 noundef 1093979341)
  %48 = call noundef signext i16 @_ZN32pxrInternal_v0_24__pxrReserved__8pxr_half4half7convertEi(i32 noundef 1095027917)
  br label %_ZN32pxrInternal_v0_24__pxrReserved__8pxr_half4halfC2Ef.exit38

_ZN32pxrInternal_v0_24__pxrReserved__8pxr_half4halfC2Ef.exit38: ; preds = %39, %44
  %.sink.i3487 = phi i16 [ %42, %39 ], [ %47, %44 ]
  %.sink.i28727685 = phi i16 [ %40, %39 ], [ %45, %44 ]
  %.sink.i317883 = phi i16 [ %41, %39 ], [ %46, %44 ]
  %.sink.i37 = phi i16 [ %43, %39 ], [ %48, %44 ]
  %49 = call noundef nonnull align 2 dereferenceable(8) ptr @_ZN32pxrInternal_v0_24__pxrReserved__7VtArrayINS_7GfVec4hEEixEm(ptr noundef nonnull align 8 dereferenceable(40) %0, i64 noundef 2)
  %.sroa.4.0.insert.ext = zext i16 %.sink.i37 to i64
  %.sroa.4.0.insert.shift = shl nuw i64 %.sroa.4.0.insert.ext, 48
  %.sroa.3.0.insert.ext = zext i16 %.sink.i3487 to i64
  %.sroa.3.0.insert.shift = shl nuw nsw i64 %.sroa.3.0.insert.ext, 32
  %.sroa.3.0.insert.insert = or disjoint i64 %.sroa.4.0.insert.shift, %.sroa.3.0.insert.shift
  %.sroa.2.0.insert.ext = zext i16 %.sink.i317883 to i64
  %.sroa.2.0.insert.shift = shl nuw nsw i64 %.sroa.2.0.insert.ext, 16
  %.sroa.2.0.insert.insert = or disjoint i64 %.sroa.3.0.insert.insert, %.sroa.2.0.insert.shift
  %.sroa.042.0.insert.ext = zext i16 %.sink.i28727685 to i64
  %.sroa.042.0.insert.insert = or disjoint i64 %.sroa.2.0.insert.insert, %.sroa.042.0.insert.ext
  store i64 %.sroa.042.0.insert.insert, ptr %49, align 2
  ret void

50:                                               ; preds = %2
  %51 = landingpad { ptr, i32 }
          cleanup
  call void @_ZN32pxrInternal_v0_24__pxrReserved__7VtArrayINS_7GfVec4hEED1Ev(ptr noundef nonnull align 8 dereferenceable(40) %3) #25
  resume { ptr, i32 } %51
}